#include <math.h>
#include <stdio.h>
#include <stdlib.h>
#include <string.h>

int main(int argc, char* argv[]){
	int n,i,j;
	char p[1000][256],p1[1000][256];
	scanf("%d",&n);
	for(i=0;i<n;i++){
		scanf("%s",p[i]);
		for(j=0;p[i][j]!='\0';j++){
			switch(p[i][j])
			{
			    case'A':
				     p1[i][j]='T';
				     break;
			    case'T':
				     p1[i][j]='A';
				     break;
				case'C':
					p1[i][j]='G';
					break;
				case'G':
					p1[i][j]='C';
					break;
			}
		}
		printf("%s\n",p1[i]);
	}



	
	

	return 0;
}