; ModuleID = 'source-C-CXX/32/208.c'
source_filename = "source-C-CXX/32/208.c"
target datalayout = "e-m:e-p270:32:32-p271:32:32-p272:64:64-i64:64-f80:128-n8:16:32:64-S128"
target triple = "x86_64-pc-linux-gnu"

@.str = private unnamed_addr constant [3 x i8] c"%d\00", align 1
@.str.1 = private unnamed_addr constant [3 x i8] c"%s\00", align 1

; Function Attrs: nofree nounwind sspstrong uwtable
define dso_local i32 @main(i32 %0, i8** nocapture readnone %1) local_unnamed_addr #0 {
  %3 = alloca i32, align 4
  %4 = alloca [1000 x [256 x i8]], align 16
  %5 = alloca [1000 x [256 x i8]], align 16
  %6 = bitcast i32* %3 to i8*
  call void @llvm.lifetime.start.p0i8(i64 4, i8* nonnull %6) #4
  %7 = getelementptr inbounds [1000 x [256 x i8]], [1000 x [256 x i8]]* %4, i64 0, i64 0, i64 0
  call void @llvm.lifetime.start.p0i8(i64 256000, i8* nonnull %7) #4
  %8 = getelementptr inbounds [1000 x [256 x i8]], [1000 x [256 x i8]]* %5, i64 0, i64 0, i64 0
  call void @llvm.lifetime.start.p0i8(i64 256000, i8* nonnull %8) #4
  %9 = call i32 (i8*, ...) @__isoc99_scanf(i8* getelementptr inbounds ([3 x i8], [3 x i8]* @.str, i64 0, i64 0), i32* nonnull %3)
  %10 = load i32, i32* %3, align 4, !tbaa !5
  %11 = icmp sgt i32 %10, 0
  br i1 %11, label %12, label %40

12:                                               ; preds = %2, %33
  %13 = phi i64 [ %36, %33 ], [ 0, %2 ]
  %14 = getelementptr inbounds [1000 x [256 x i8]], [1000 x [256 x i8]]* %4, i64 0, i64 %13, i64 0
  %15 = call i32 (i8*, ...) @__isoc99_scanf(i8* getelementptr inbounds ([3 x i8], [3 x i8]* @.str.1, i64 0, i64 0), i8* nonnull %14)
  %16 = load i8, i8* %14, align 16, !tbaa !9
  %17 = icmp eq i8 %16, 0
  br i1 %17, label %33, label %18

18:                                               ; preds = %12, %28
  %19 = phi i64 [ %29, %28 ], [ 0, %12 ]
  %20 = phi i8 [ %31, %28 ], [ %16, %12 ]
  %21 = sext i8 %20 to i32
  switch i32 %21, label %28 [
    i32 65, label %25
    i32 84, label %22
    i32 67, label %23
    i32 71, label %24
  ]

22:                                               ; preds = %18
  br label %25

23:                                               ; preds = %18
  br label %25

24:                                               ; preds = %18
  br label %25

25:                                               ; preds = %18, %24, %23, %22
  %26 = phi i8 [ 65, %22 ], [ 71, %23 ], [ 67, %24 ], [ 84, %18 ]
  %27 = getelementptr inbounds [1000 x [256 x i8]], [1000 x [256 x i8]]* %5, i64 0, i64 %13, i64 %19
  store i8 %26, i8* %27, align 1, !tbaa !9
  br label %28

28:                                               ; preds = %25, %18
  %29 = add nuw i64 %19, 1
  %30 = getelementptr inbounds [1000 x [256 x i8]], [1000 x [256 x i8]]* %4, i64 0, i64 %13, i64 %29
  %31 = load i8, i8* %30, align 1, !tbaa !9
  %32 = icmp eq i8 %31, 0
  br i1 %32, label %33, label %18, !llvm.loop !10

33:                                               ; preds = %28, %12
  %34 = getelementptr inbounds [1000 x [256 x i8]], [1000 x [256 x i8]]* %5, i64 0, i64 %13, i64 0
  %35 = call i32 @puts(i8* nonnull %34)
  %36 = add nuw nsw i64 %13, 1
  %37 = load i32, i32* %3, align 4, !tbaa !5
  %38 = sext i32 %37 to i64
  %39 = icmp slt i64 %36, %38
  br i1 %39, label %12, label %40, !llvm.loop !12

40:                                               ; preds = %33, %2
  call void @llvm.lifetime.end.p0i8(i64 256000, i8* nonnull %8) #4
  call void @llvm.lifetime.end.p0i8(i64 256000, i8* nonnull %7) #4
  call void @llvm.lifetime.end.p0i8(i64 4, i8* nonnull %6) #4
  ret i32 0
}

; Function Attrs: argmemonly mustprogress nofree nosync nounwind willreturn
declare void @llvm.lifetime.start.p0i8(i64 immarg, i8* nocapture) #1

; Function Attrs: nofree nounwind
declare noundef i32 @__isoc99_scanf(i8* nocapture noundef readonly, ...) local_unnamed_addr #2

; Function Attrs: argmemonly mustprogress nofree nosync nounwind willreturn
declare void @llvm.lifetime.end.p0i8(i64 immarg, i8* nocapture) #1

; Function Attrs: nofree nounwind
declare noundef i32 @puts(i8* nocapture noundef readonly) local_unnamed_addr #3


!llvm.module.flags = !{!0, !1, !2, !3}
!llvm.ident = !{!4}

!0 = !{i32 1, !"wchar_size", i32 4}
!1 = !{i32 7, !"PIC Level", i32 2}
!2 = !{i32 7, !"PIE Level", i32 2}
!3 = !{i32 7, !"uwtable", i32 1}
!4 = !{!"clang version 13.0.0"}
!5 = !{!6, !6, i64 0}
!6 = !{!"int", !7, i64 0}
!7 = !{!"omnipotent char", !8, i64 0}
!8 = !{!"Simple C/C++ TBAA"}
!9 = !{!7, !7, i64 0}
!10 = distinct !{!10, !11}
!11 = !{!"llvm.loop.mustprogress"}
!12 = distinct !{!12, !11}
